target datalayout = "e-m:e-p270:32:32-p271:32:32-p272:64:64-i64:64-i128:128-f80:128-n8:16:32:64-S128"
target triple = "x86_64-pc-linux-gnu"

%"struct.Luau::CodeGen::CodeAllocator" = type { ptr, ptr, ptr, ptr, ptr, %"class.std::vector", %"class.std::vector.0", i64, i64, ptr, ptr }
%"class.std::vector" = type { %"struct.std::_Vector_base" }
%"struct.std::_Vector_base" = type { %"struct.std::_Vector_base<unsigned char *, std::allocator<unsigned char *>>::_Vector_impl" }
%"struct.std::_Vector_base<unsigned char *, std::allocator<unsigned char *>>::_Vector_impl" = type { %"struct.std::_Vector_base<unsigned char *, std::allocator<unsigned char *>>::_Vector_impl_data" }
%"struct.std::_Vector_base<unsigned char *, std::allocator<unsigned char *>>::_Vector_impl_data" = type { ptr, ptr, ptr }
%"class.std::vector.0" = type { %"struct.std::_Vector_base.1" }
%"struct.std::_Vector_base.1" = type { %"struct.std::_Vector_base<void *, std::allocator<void *>>::_Vector_impl" }
%"struct.std::_Vector_base<void *, std::allocator<void *>>::_Vector_impl" = type { %"struct.std::_Vector_base<void *, std::allocator<void *>>::_Vector_impl_data" }
%"struct.std::_Vector_base<void *, std::allocator<void *>>::_Vector_impl_data" = type { ptr, ptr, ptr }

; Function Attrs: mustprogress nounwind uwtable
define linkonce_odr dso_local void @_ZNSt15__new_allocatorIPvEC2Ev(ptr noundef nonnull align 1 dereferenceable(1) %0) unnamed_addr #4 comdat align 2 {
  %2 = alloca ptr, align 8
  store ptr %0, ptr %2, align 8, !tbaa !74
  ret void
}

; Function Attrs: mustprogress nounwind uwtable
define linkonce_odr dso_local void @_ZNSt15__new_allocatorIPhEC2Ev(ptr noundef nonnull align 1 dereferenceable(1) %0) unnamed_addr #4 comdat align 2 {
  %2 = alloca ptr, align 8
  store ptr %0, ptr %2, align 8, !tbaa !64
  ret void
}

; Function Attrs: mustprogress nounwind uwtable
define linkonce_odr dso_local void @_ZNSt12_Vector_baseIPvSaIS0_EE17_Vector_impl_dataC2Ev(ptr noundef nonnull align 8 dereferenceable(24) %0) unnamed_addr #4 comdat align 2 {
  %2 = alloca ptr, align 8
  store ptr %0, ptr %2, align 8, !tbaa !72
  %3 = load ptr, ptr %2, align 8
  %4 = getelementptr inbounds nuw %"struct.std::_Vector_base<void *, std::allocator<void *>>::_Vector_impl_data", ptr %3, i32 0, i32 0
  store ptr null, ptr %4, align 8, !tbaa !48
  %5 = getelementptr inbounds nuw %"struct.std::_Vector_base<void *, std::allocator<void *>>::_Vector_impl_data", ptr %3, i32 0, i32 1
  store ptr null, ptr %5, align 8, !tbaa !49
  %6 = getelementptr inbounds nuw %"struct.std::_Vector_base<void *, std::allocator<void *>>::_Vector_impl_data", ptr %3, i32 0, i32 2
  store ptr null, ptr %6, align 8, !tbaa !55
  ret void
}

; Function Attrs: mustprogress nounwind uwtable
define linkonce_odr dso_local void @_ZNSaIPvEC2Ev(ptr noundef nonnull align 1 dereferenceable(1) %0) unnamed_addr #4 comdat align 2 {
  %2 = alloca ptr, align 8
  store ptr %0, ptr %2, align 8, !tbaa !70
  %3 = load ptr, ptr %2, align 8
  call void @_ZNSt15__new_allocatorIPvEC2Ev(ptr noundef nonnull align 1 dereferenceable(1) %3) #8
  ret void
}

; Function Attrs: mustprogress nounwind uwtable
define linkonce_odr dso_local void @_ZNSt12_Vector_baseIPhSaIS0_EE17_Vector_impl_dataC2Ev(ptr noundef nonnull align 8 dereferenceable(24) %0) unnamed_addr #4 comdat align 2 {
  %2 = alloca ptr, align 8
  store ptr %0, ptr %2, align 8, !tbaa !62
  %3 = load ptr, ptr %2, align 8
  %4 = getelementptr inbounds nuw %"struct.std::_Vector_base<unsigned char *, std::allocator<unsigned char *>>::_Vector_impl_data", ptr %3, i32 0, i32 0
  store ptr null, ptr %4, align 8, !tbaa !50
  %5 = getelementptr inbounds nuw %"struct.std::_Vector_base<unsigned char *, std::allocator<unsigned char *>>::_Vector_impl_data", ptr %3, i32 0, i32 1
  store ptr null, ptr %5, align 8, !tbaa !51
  %6 = getelementptr inbounds nuw %"struct.std::_Vector_base<unsigned char *, std::allocator<unsigned char *>>::_Vector_impl_data", ptr %3, i32 0, i32 2
  store ptr null, ptr %6, align 8, !tbaa !54
  ret void
}

; Function Attrs: mustprogress nounwind uwtable
define linkonce_odr dso_local void @_ZNSaIPhEC2Ev(ptr noundef nonnull align 1 dereferenceable(1) %0) unnamed_addr #4 comdat align 2 {
  %2 = alloca ptr, align 8
  store ptr %0, ptr %2, align 8, !tbaa !60
  %3 = load ptr, ptr %2, align 8
  call void @_ZNSt15__new_allocatorIPhEC2Ev(ptr noundef nonnull align 1 dereferenceable(1) %3) #8
  ret void
}

; Function Attrs: mustprogress nounwind uwtable
define linkonce_odr dso_local void @_ZNSt12_Vector_baseIPvSaIS0_EE12_Vector_implC2Ev(ptr noundef nonnull align 8 dereferenceable(24) %0) unnamed_addr #4 comdat align 2 {
  %2 = alloca ptr, align 8
  store ptr %0, ptr %2, align 8, !tbaa !68
  %3 = load ptr, ptr %2, align 8
  call void @_ZNSaIPvEC2Ev(ptr noundef nonnull align 1 dereferenceable(1) %3) #8
  call void @_ZNSt12_Vector_baseIPvSaIS0_EE17_Vector_impl_dataC2Ev(ptr noundef nonnull align 8 dereferenceable(24) %3) #8
  ret void
}

; Function Attrs: mustprogress nounwind uwtable
define linkonce_odr dso_local void @_ZNSt12_Vector_baseIPhSaIS0_EE12_Vector_implC2Ev(ptr noundef nonnull align 8 dereferenceable(24) %0) unnamed_addr #4 comdat align 2 {
  %2 = alloca ptr, align 8
  store ptr %0, ptr %2, align 8, !tbaa !58
  %3 = load ptr, ptr %2, align 8
  call void @_ZNSaIPhEC2Ev(ptr noundef nonnull align 1 dereferenceable(1) %3) #8
  call void @_ZNSt12_Vector_baseIPhSaIS0_EE17_Vector_impl_dataC2Ev(ptr noundef nonnull align 8 dereferenceable(24) %3) #8
  ret void
}

; Function Attrs: mustprogress nounwind uwtable
define linkonce_odr dso_local void @_ZNSt12_Vector_baseIPvSaIS0_EEC2Ev(ptr noundef nonnull align 8 dereferenceable(24) %0) unnamed_addr #4 comdat align 2 {
  %2 = alloca ptr, align 8
  store ptr %0, ptr %2, align 8, !tbaa !66
  %3 = load ptr, ptr %2, align 8
  %4 = getelementptr inbounds nuw %"struct.std::_Vector_base.1", ptr %3, i32 0, i32 0
  call void @_ZNSt12_Vector_baseIPvSaIS0_EE12_Vector_implC2Ev(ptr noundef nonnull align 8 dereferenceable(24) %4) #8
  ret void
}

; Function Attrs: mustprogress nounwind uwtable
define linkonce_odr dso_local void @_ZNSt12_Vector_baseIPhSaIS0_EEC2Ev(ptr noundef nonnull align 8 dereferenceable(24) %0) unnamed_addr #4 comdat align 2 {
  %2 = alloca ptr, align 8
  store ptr %0, ptr %2, align 8, !tbaa !56
  %3 = load ptr, ptr %2, align 8
  %4 = getelementptr inbounds nuw %"struct.std::_Vector_base", ptr %3, i32 0, i32 0
  call void @_ZNSt12_Vector_baseIPhSaIS0_EE12_Vector_implC2Ev(ptr noundef nonnull align 8 dereferenceable(24) %4) #8
  ret void
}

; Function Attrs: mustprogress nounwind uwtable
define linkonce_odr dso_local void @_ZNSt6vectorIPvSaIS0_EEC2Ev(ptr noundef nonnull align 8 dereferenceable(24) %0) unnamed_addr #4 comdat align 2 {
  %2 = alloca ptr, align 8
  store ptr %0, ptr %2, align 8, !tbaa !35
  %3 = load ptr, ptr %2, align 8
  call void @_ZNSt12_Vector_baseIPvSaIS0_EEC2Ev(ptr noundef nonnull align 8 dereferenceable(24) %3) #8
  ret void
}

; Function Attrs: mustprogress nounwind uwtable
define linkonce_odr dso_local void @_ZNSt6vectorIPhSaIS0_EEC2Ev(ptr noundef nonnull align 8 dereferenceable(24) %0) unnamed_addr #4 comdat align 2 {
  %2 = alloca ptr, align 8
  store ptr %0, ptr %2, align 8, !tbaa !33
  %3 = load ptr, ptr %2, align 8
  call void @_ZNSt12_Vector_baseIPhSaIS0_EEC2Ev(ptr noundef nonnull align 8 dereferenceable(24) %3) #8
  ret void
}

; Function Attrs: mustprogress nounwind uwtable
define dso_local void @_ZN4Luau7CodeGen13CodeAllocatorC2EmmPFvPvS2_mS2_mES2_(ptr noundef nonnull align 8 dereferenceable(120) %0, i64 noundef %1, i64 noundef %2, ptr noundef %3, ptr noundef %4) unnamed_addr #4 align 2 {
  %6 = alloca ptr, align 8
  %7 = alloca i64, align 8
  %8 = alloca i64, align 8
  %9 = alloca ptr, align 8
  %10 = alloca ptr, align 8
  store ptr %0, ptr %6, align 8, !tbaa !8
  store i64 %1, ptr %7, align 8, !tbaa !4
  store i64 %2, ptr %8, align 8, !tbaa !4
  store ptr %3, ptr %9, align 8, !tbaa !11
  store ptr %4, ptr %10, align 8, !tbaa !11
  %11 = load ptr, ptr %6, align 8
  %12 = getelementptr inbounds nuw %"struct.Luau::CodeGen::CodeAllocator", ptr %11, i32 0, i32 0
  store ptr null, ptr %12, align 8, !tbaa !12
  %13 = getelementptr inbounds nuw %"struct.Luau::CodeGen::CodeAllocator", ptr %11, i32 0, i32 1
  store ptr null, ptr %13, align 8, !tbaa !25
  %14 = getelementptr inbounds nuw %"struct.Luau::CodeGen::CodeAllocator", ptr %11, i32 0, i32 2
  store ptr null, ptr %14, align 8, !tbaa !26
  %15 = getelementptr inbounds nuw %"struct.Luau::CodeGen::CodeAllocator", ptr %11, i32 0, i32 3
  store ptr null, ptr %15, align 8, !tbaa !27
  %16 = getelementptr inbounds nuw %"struct.Luau::CodeGen::CodeAllocator", ptr %11, i32 0, i32 4
  store ptr null, ptr %16, align 8, !tbaa !28
  %17 = getelementptr inbounds nuw %"struct.Luau::CodeGen::CodeAllocator", ptr %11, i32 0, i32 5
  call void @_ZNSt6vectorIPhSaIS0_EEC2Ev(ptr noundef nonnull align 8 dereferenceable(24) %17) #8
  %18 = getelementptr inbounds nuw %"struct.Luau::CodeGen::CodeAllocator", ptr %11, i32 0, i32 6
  call void @_ZNSt6vectorIPvSaIS0_EEC2Ev(ptr noundef nonnull align 8 dereferenceable(24) %18) #8
  %19 = getelementptr inbounds nuw %"struct.Luau::CodeGen::CodeAllocator", ptr %11, i32 0, i32 7
  %20 = load i64, ptr %7, align 8, !tbaa !4
  store i64 %20, ptr %19, align 8, !tbaa !29
  %21 = getelementptr inbounds nuw %"struct.Luau::CodeGen::CodeAllocator", ptr %11, i32 0, i32 8
  %22 = load i64, ptr %8, align 8, !tbaa !4
  store i64 %22, ptr %21, align 8, !tbaa !30
  %23 = getelementptr inbounds nuw %"struct.Luau::CodeGen::CodeAllocator", ptr %11, i32 0, i32 9
  %24 = load ptr, ptr %9, align 8, !tbaa !11
  store ptr %24, ptr %23, align 8, !tbaa !31
  %25 = getelementptr inbounds nuw %"struct.Luau::CodeGen::CodeAllocator", ptr %11, i32 0, i32 10
  %26 = load ptr, ptr %10, align 8, !tbaa !11
  store ptr %26, ptr %25, align 8, !tbaa !32
  ret void
}