; Function Attrs: mustprogress nofree norecurse nosync nounwind willreturn memory(argmem: write) uwtable
define dso_local void @_ZN4Luau7CodeGen13CodeAllocatorC2EmmPFvPvS2_mS2_mES2_(ptr noundef nonnull writeonly align 8 captures(none) dereferenceable(120) initializes((0, 120)) %0, i64 noundef %1, i64 noundef %2, ptr noundef %3, ptr noundef %4) unnamed_addr #2 align 2 {
  %6 = getelementptr inbounds nuw i8, ptr %0, i64 88
  tail call void @llvm.memset.p0.i64(ptr noundef nonnull align 8 dereferenceable(88) %0, i8 0, i64 88, i1 false)
  store i64 %1, ptr %6, align 8, !tbaa !4
  %7 = getelementptr inbounds nuw i8, ptr %0, i64 96
  store i64 %2, ptr %7, align 8, !tbaa !21
  %8 = getelementptr inbounds nuw i8, ptr %0, i64 104
  store ptr %3, ptr %8, align 8, !tbaa !22
  %9 = getelementptr inbounds nuw i8, ptr %0, i64 112
  store ptr %4, ptr %9, align 8, !tbaa !23
  ret void
}